target datalayout = "e-m:e-p270:32:32-p271:32:32-p272:64:64-i64:64-i128:128-f80:128-n8:16:32:64-S128"
target triple = "x86_64-pc-linux-gnu"

%struct.mi_memid_s = type { %union.anon, i8, i8, i8, i32 }
%union.anon = type { %struct.mi_memid_os_info }
%struct.mi_memid_os_info = type { ptr, i64 }
%struct.mi_memid_arena_info = type { i64, i32, i8 }

; Function Attrs: nounwind uwtable
define hidden i64 @mi_arena_id_index(i32 noundef %0) #0 {
  %2 = alloca i32, align 4
  store i32 %0, ptr %2, align 4, !tbaa !52
  %3 = load i32, ptr %2, align 4, !tbaa !52
  %4 = icmp sle i32 %3, 0
  br i1 %4, label %5, label %6

5:                                                ; preds = %1
  br label %9

6:                                                ; preds = %1
  %7 = load i32, ptr %2, align 4, !tbaa !52
  %8 = sub nsw i32 %7, 1
  br label %9

9:                                                ; preds = %6, %5
  %10 = phi i32 [ 132, %5 ], [ %8, %6 ]
  %11 = sext i32 %10 to i64
  ret i64 %11
}

; Function Attrs: nounwind uwtable
define hidden zeroext i1 @mi_arena_memid_indices(ptr noundef byval(%struct.mi_memid_s) align 8 %0, ptr noundef %1, ptr noundef %2) #0 {
  %4 = alloca ptr, align 8
  %5 = alloca ptr, align 8
  store ptr %1, ptr %4, align 8, !tbaa !31
  store ptr %2, ptr %5, align 8, !tbaa !31
  %6 = getelementptr inbounds nuw %struct.mi_memid_s, ptr %0, i32 0, i32 0
  %7 = getelementptr inbounds nuw %struct.mi_memid_arena_info, ptr %6, i32 0, i32 1
  %8 = load i32, ptr %7, align 8, !tbaa !33
  %9 = call i64 @mi_arena_id_index(i32 noundef %8) #12
  %10 = load ptr, ptr %4, align 8, !tbaa !31
  store i64 %9, ptr %10, align 8, !tbaa !15
  %11 = getelementptr inbounds nuw %struct.mi_memid_s, ptr %0, i32 0, i32 0
  %12 = getelementptr inbounds nuw %struct.mi_memid_arena_info, ptr %11, i32 0, i32 0
  %13 = load i64, ptr %12, align 8, !tbaa !33
  %14 = load ptr, ptr %5, align 8, !tbaa !31
  store i64 %13, ptr %14, align 8, !tbaa !15
  %15 = getelementptr inbounds nuw %struct.mi_memid_s, ptr %0, i32 0, i32 0
  %16 = getelementptr inbounds nuw %struct.mi_memid_arena_info, ptr %15, i32 0, i32 2
  %17 = load i8, ptr %16, align 4, !tbaa !33, !range !22, !noundef !23
  %18 = trunc i8 %17 to i1
  ret i1 %18
}