; Function Attrs: mustprogress nofree norecurse nosync nounwind willreturn memory(argmem: readwrite) uwtable
define hidden zeroext i1 @mi_arena_memid_indices(ptr noundef readonly byval(%struct.mi_memid_s) align 8 captures(none) %0, ptr noundef writeonly captures(none) initializes((0, 8)) %1, ptr noundef writeonly captures(none) initializes((0, 8)) %2) local_unnamed_addr #2 {
  %4 = getelementptr inbounds nuw i8, ptr %0, i64 8
  %5 = load i32, ptr %4, align 8, !tbaa !24
  %6 = icmp slt i32 %5, 1
  %7 = add nsw i32 %5, -1
  %8 = select i1 %6, i32 132, i32 %7
  %9 = zext nneg i32 %8 to i64
  store i64 %9, ptr %1, align 8, !tbaa !25
  %10 = load i64, ptr %0, align 8, !tbaa !24
  store i64 %10, ptr %2, align 8, !tbaa !25
  %11 = getelementptr inbounds nuw i8, ptr %0, i64 12
  %12 = load i8, ptr %11, align 4, !tbaa !24, !range !26, !noundef !27
  %13 = trunc nuw i8 %12 to i1
  ret i1 %13
}